target datalayout = "e-m:e-p270:32:32-p271:32:32-p272:64:64-i64:64-i128:128-f80:128-n8:16:32:64-S128"
target triple = "x86_64-pc-linux-gnu"

@.str = private unnamed_addr constant [19 x i8] c"org.openssl.engine\00", align 1

; Function Attrs: nounwind uwtable
define i32 @setup_engine_loader() #0 {
  %1 = alloca ptr, align 8
  call void @llvm.lifetime.start.p0(i64 8, ptr %1) #5
  store ptr null, ptr %1, align 8, !tbaa !3
  %2 = call ptr @OSSL_STORE_LOADER_new(ptr noundef null, ptr noundef @.str)
  store ptr %2, ptr %1, align 8, !tbaa !3
  %3 = icmp eq ptr %2, null
  br i1 %3, label %32, label %4

4:                                                ; preds = %0
  %5 = load ptr, ptr %1, align 8, !tbaa !3
  %6 = call i32 @OSSL_STORE_LOADER_set_open(ptr noundef %5, ptr noundef @engine_open)
  %7 = icmp ne i32 %6, 0
  br i1 %7, label %8, label %32

8:                                                ; preds = %4
  %9 = load ptr, ptr %1, align 8, !tbaa !3
  %10 = call i32 @OSSL_STORE_LOADER_set_expect(ptr noundef %9, ptr noundef @engine_expect)
  %11 = icmp ne i32 %10, 0
  br i1 %11, label %12, label %32

12:                                               ; preds = %8
  %13 = load ptr, ptr %1, align 8, !tbaa !3
  %14 = call i32 @OSSL_STORE_LOADER_set_load(ptr noundef %13, ptr noundef @engine_load)
  %15 = icmp ne i32 %14, 0
  br i1 %15, label %16, label %32

16:                                               ; preds = %12
  %17 = load ptr, ptr %1, align 8, !tbaa !3
  %18 = call i32 @OSSL_STORE_LOADER_set_eof(ptr noundef %17, ptr noundef @engine_eof)
  %19 = icmp ne i32 %18, 0
  br i1 %19, label %20, label %32

20:                                               ; preds = %16
  %21 = load ptr, ptr %1, align 8, !tbaa !3
  %22 = call i32 @OSSL_STORE_LOADER_set_error(ptr noundef %21, ptr noundef @engine_error)
  %23 = icmp ne i32 %22, 0
  br i1 %23, label %24, label %32

24:                                               ; preds = %20
  %25 = load ptr, ptr %1, align 8, !tbaa !3
  %26 = call i32 @OSSL_STORE_LOADER_set_close(ptr noundef %25, ptr noundef @engine_close)
  %27 = icmp ne i32 %26, 0
  br i1 %27, label %28, label %32

28:                                               ; preds = %24
  %29 = load ptr, ptr %1, align 8, !tbaa !3
  %30 = call i32 @OSSL_STORE_register_loader(ptr noundef %29)
  %31 = icmp ne i32 %30, 0
  br i1 %31, label %34, label %32

32:                                               ; preds = %28, %24, %20, %16, %12, %8, %4, %0
  %33 = load ptr, ptr %1, align 8, !tbaa !3
  call void @OSSL_STORE_LOADER_free(ptr noundef %33)
  store ptr null, ptr %1, align 8, !tbaa !3
  br label %34

34:                                               ; preds = %32, %28
  %35 = load ptr, ptr %1, align 8, !tbaa !3
  %36 = icmp ne ptr %35, null
  %37 = zext i1 %36 to i32
  call void @llvm.lifetime.end.p0(i64 8, ptr %1) #5
  ret i32 %37
}