; Function Attrs: nounwind uwtable
define range(i32 0, 2) i32 @setup_engine_loader() local_unnamed_addr #0 {
  %1 = tail call ptr @OSSL_STORE_LOADER_new(ptr noundef null, ptr noundef nonnull @.str) #8
  %2 = icmp eq ptr %1, null
  br i1 %2, label %17, label %3

3:                                                ; preds = %0
  %4 = tail call i32 @OSSL_STORE_LOADER_set_open(ptr noundef nonnull %1, ptr noundef nonnull @engine_open) #8
  %.not = icmp eq i32 %4, 0
  br i1 %.not, label %17, label %5

5:                                                ; preds = %3
  %6 = tail call i32 @OSSL_STORE_LOADER_set_expect(ptr noundef nonnull %1, ptr noundef nonnull @engine_expect) #8
  %.not10 = icmp eq i32 %6, 0
  br i1 %.not10, label %17, label %7

7:                                                ; preds = %5
  %8 = tail call i32 @OSSL_STORE_LOADER_set_load(ptr noundef nonnull %1, ptr noundef nonnull @engine_load) #8
  %.not11 = icmp eq i32 %8, 0
  br i1 %.not11, label %17, label %9

9:                                                ; preds = %7
  %10 = tail call i32 @OSSL_STORE_LOADER_set_eof(ptr noundef nonnull %1, ptr noundef nonnull @engine_eof) #8
  %.not12 = icmp eq i32 %10, 0
  br i1 %.not12, label %17, label %11

11:                                               ; preds = %9
  %12 = tail call i32 @OSSL_STORE_LOADER_set_error(ptr noundef nonnull %1, ptr noundef nonnull @engine_error) #8
  %.not13 = icmp eq i32 %12, 0
  br i1 %.not13, label %17, label %13

13:                                               ; preds = %11
  %14 = tail call i32 @OSSL_STORE_LOADER_set_close(ptr noundef nonnull %1, ptr noundef nonnull @engine_close) #8
  %.not14 = icmp eq i32 %14, 0
  br i1 %.not14, label %17, label %15

15:                                               ; preds = %13
  %16 = tail call i32 @OSSL_STORE_register_loader(ptr noundef nonnull %1) #8
  %.not15 = icmp eq i32 %16, 0
  br i1 %.not15, label %17, label %18

17:                                               ; preds = %15, %13, %11, %9, %7, %5, %3, %0
  tail call void @OSSL_STORE_LOADER_free(ptr noundef %1) #8
  br label %18

18:                                               ; preds = %17, %15
  %.0 = phi i32 [ 0, %17 ], [ 1, %15 ]
  ret i32 %.0
}